; Function Attrs: null_pointer_is_valid sspstrong uwtable
define internal noundef i32 @fc_to_str(ptr noundef readonly captures(none) %0, ptr noundef %1, i32 noundef %2) #6 {
  %4 = icmp slt i32 %2, 9
  br i1 %4, label %5, label %8

5:                                                ; preds = %3
  %6 = sext i32 %2 to i64
  %7 = tail call i64 @g_strlcpy(ptr noundef %1, ptr noundef nonnull @.str, i64 noundef %6)
  br label %17

8:                                                ; preds = %3
  %9 = getelementptr inbounds nuw i8, ptr %0, i64 8
  %10 = load ptr, ptr %9, align 8
  %11 = tail call ptr @bytes_to_hexstr_punct(ptr noundef %1, ptr noundef %10, i64 noundef 3, i8 noundef signext 46)
  %12 = getelementptr i8, ptr %11, i64 1
  store i8 0, ptr %11, align 1
  %13 = ptrtoint ptr %12 to i64
  %14 = ptrtoint ptr %1 to i64
  %15 = sub i64 %13, %14
  %16 = trunc i64 %15 to i32
  br label %17

17:                                               ; preds = %8, %5
  %.0 = phi i32 [ %2, %5 ], [ %16, %8 ]
  ret i32 %.0
}